; Function Attrs: mustprogress nofree norecurse nosync nounwind willreturn memory(read, inaccessiblemem: none) uwtable
define hidden noundef zeroext i1 @_ZN3sat14anf_simplifier13phase_is_trueENS_7literalE(ptr nocapture noundef nonnull readonly align 8 dereferenceable(96) %this, i32 %l.coerce) local_unnamed_addr #9 align 2 {
entry:
  %0 = load ptr, ptr %this, align 8
  %m_best_phase_size = getelementptr inbounds i8, ptr %0, i64 3652
  %1 = load i32, ptr %m_best_phase_size, align 4
  %cmp.not = icmp eq i32 %1, 0
  %shr.i2 = lshr i32 %l.coerce, 1
  %idxprom.i3 = zext nneg i32 %shr.i2 to i64
  %. = select i1 %cmp.not, i64 3600, i64 3608
  %m_phase = getelementptr inbounds i8, ptr %0, i64 %.
  %2 = load ptr, ptr %m_phase, align 8
  %arrayidx.i4 = getelementptr inbounds i8, ptr %2, i64 %idxprom.i3
  %cond.in.in = load i8, ptr %arrayidx.i4, align 1
  %cond.in = and i8 %cond.in.in, 1
  %cond = icmp ne i8 %cond.in, 0
  %3 = and i32 %l.coerce, 1
  %4 = icmp ne i32 %3, 0
  %spec.select = xor i1 %4, %cond
  ret i1 %spec.select
}